; Function Attrs: mustprogress uwtable
define internal void @_ZNK5faiss12_GLOBAL__N_118IVFBinaryScannerL2INS_16HammingComputer4EE16scan_codes_rangeEmPKhPKliRNS_16RangeQueryResultE(ptr nocapture noundef nonnull readonly align 8 dereferenceable(40) %0, i64 noundef %1, ptr noalias nocapture noundef readonly %2, ptr noalias nocapture noundef readonly %3, i32 noundef %4, ptr noundef nonnull align 8 dereferenceable(24) %5) unnamed_addr #1 align 2 {
  %.not18 = icmp eq i64 %1, 0
  br i1 %.not18, label %._crit_edge, label %.lr.ph

.lr.ph:                                           ; preds = %6
  %7 = getelementptr inbounds i8, ptr %0, i64 8
  %8 = getelementptr inbounds i8, ptr %0, i64 24
  %9 = getelementptr inbounds i8, ptr %0, i64 32
  %10 = getelementptr inbounds i8, ptr %0, i64 16
  br label %11

11:                                               ; preds = %.lr.ph, %30
  %.017 = phi ptr [ %2, %.lr.ph ], [ %32, %30 ]
  %.01315 = phi i64 [ 0, %.lr.ph ], [ %33, %30 ]
  %12 = load i32, ptr %.017, align 4
  %13 = load i32, ptr %7, align 8
  %14 = xor i32 %13, %12
  %15 = tail call noundef i32 @llvm.ctpop.i32(i32 %14), !range !206
  %16 = icmp ult i32 %15, %4
  br i1 %16, label %17, label %30

17:                                               ; preds = %11
  %18 = load i8, ptr %8, align 8
  %19 = and i8 %18, 1
  %.not = icmp eq i8 %19, 0
  br i1 %.not, label %24, label %20

20:                                               ; preds = %17
  %21 = load i64, ptr %9, align 8
  %22 = shl i64 %21, 32
  %23 = or i64 %22, %.01315
  br label %27

24:                                               ; preds = %17
  %25 = getelementptr inbounds i64, ptr %3, i64 %.01315
  %26 = load i64, ptr %25, align 8
  br label %27

27:                                               ; preds = %24, %20
  %28 = phi i64 [ %23, %20 ], [ %26, %24 ]
  %29 = uitofp i32 %15 to float
  tail call void @_ZN5faiss16RangeQueryResult3addEfl(ptr noundef nonnull align 8 dereferenceable(24) %5, float noundef %29, i64 noundef %28)
  br label %30

30:                                               ; preds = %27, %11
  %31 = load i64, ptr %10, align 8
  %32 = getelementptr inbounds i8, ptr %.017, i64 %31
  %33 = add nuw i64 %.01315, 1
  %exitcond.not = icmp eq i64 %33, %1
  br i1 %exitcond.not, label %._crit_edge, label %11, !llvm.loop !209

._crit_edge:                                      ; preds = %30, %6
  ret void
}